; Function Attrs: mustprogress nofree norecurse nosync nounwind memory(readwrite, inaccessiblemem: none) uwtable
define hidden void @_ZN14VLoopVPointers15count_vpointersEv(ptr nocapture noundef nonnull align 8 dereferenceable(64) %0) local_unnamed_addr #3 align 2 {
  %2 = getelementptr inbounds i8, ptr %0, i64 32
  store i32 0, ptr %2, align 8
  %3 = getelementptr inbounds i8, ptr %0, i64 16
  %4 = load ptr, ptr %3, align 8
  %5 = getelementptr inbounds i8, ptr %4, i64 8
  %6 = load i32, ptr %5, align 4
  %7 = icmp sgt i32 %6, 0
  br i1 %7, label %.lr.ph.i, label %"_ZNK9VLoopBody12for_each_memIZN14VLoopVPointers15count_vpointersEvE3$_0EEvT_.exit"

.lr.ph.i:                                         ; preds = %1
  %8 = getelementptr inbounds i8, ptr %4, i64 16
  br label %9

9:                                                ; preds = %_ZNK5VLoop5in_bbEPK4Node.exit.thread.i, %.lr.ph.i
  %indvars.iv.i = phi i64 [ 0, %.lr.ph.i ], [ %indvars.iv.next.i, %_ZNK5VLoop5in_bbEPK4Node.exit.thread.i ]
  %10 = load ptr, ptr %8, align 8
  %11 = getelementptr inbounds ptr, ptr %10, i64 %indvars.iv.i
  %12 = load ptr, ptr %11, align 8
  %13 = getelementptr inbounds i8, ptr %12, i64 44
  %14 = load i32, ptr %13, align 4
  %15 = and i32 %14, 31
  %16 = icmp ne i32 %15, 16
  %.not8.i = icmp eq ptr %12, null
  %.not.i = or i1 %.not8.i, %16
  br i1 %.not.i, label %_ZNK5VLoop5in_bbEPK4Node.exit.thread.i, label %17

17:                                               ; preds = %9
  %18 = load ptr, ptr %4, align 8
  %19 = load ptr, ptr %18, align 8
  %20 = getelementptr inbounds i8, ptr %12, i64 40
  %21 = load i32, ptr %20, align 8
  %22 = getelementptr inbounds i8, ptr %19, i64 32
  %23 = load i32, ptr %22, align 8
  %24 = icmp ugt i32 %23, %21
  br i1 %24, label %_ZNK14PhaseIdealLoop8has_ctrlEPK4Node.exit.i.i, label %.thread.i.i

_ZNK14PhaseIdealLoop8has_ctrlEPK4Node.exit.i.i:   ; preds = %17
  %25 = getelementptr inbounds i8, ptr %19, i64 40
  %26 = load ptr, ptr %25, align 8
  %27 = zext i32 %21 to i64
  %28 = getelementptr inbounds ptr, ptr %26, i64 %27
  %29 = load ptr, ptr %28, align 8
  %30 = ptrtoint ptr %29 to i64
  %31 = and i64 %30, 1
  %.not14.i.i = icmp eq i64 %31, 0
  br i1 %.not14.i.i, label %.thread.i.i, label %_ZNK14PhaseIdealLoop25get_ctrl_no_update_helperEPK4Node.exit.i.i.i.i

_ZNK14PhaseIdealLoop25get_ctrl_no_update_helperEPK4Node.exit.i.i.i.i: ; preds = %_ZNK14PhaseIdealLoop8has_ctrlEPK4Node.exit.i.i
  %32 = and i64 %30, -2
  %33 = inttoptr i64 %32 to ptr
  %34 = getelementptr inbounds i8, ptr %33, i64 8
  %35 = load ptr, ptr %34, align 8
  %36 = load ptr, ptr %35, align 8
  %.not.i.i.i.i = icmp eq ptr %36, null
  br i1 %.not.i.i.i.i, label %.preheader.i.i.i.i, label %.thread.i.i

.preheader.i.i.i.i:                               ; preds = %_ZNK14PhaseIdealLoop25get_ctrl_no_update_helperEPK4Node.exit.i.i.i.i, %_ZNK14PhaseIdealLoop25get_ctrl_no_update_helperEPK4Node.exit8.i.i.i.i
  %.0.i.i.i.i = phi ptr [ %47, %_ZNK14PhaseIdealLoop25get_ctrl_no_update_helperEPK4Node.exit8.i.i.i.i ], [ %33, %_ZNK14PhaseIdealLoop25get_ctrl_no_update_helperEPK4Node.exit.i.i.i.i ]
  %37 = getelementptr inbounds i8, ptr %.0.i.i.i.i, i64 40
  %38 = load i32, ptr %37, align 8
  %39 = icmp ugt i32 %23, %38
  br i1 %39, label %40, label %_ZNK14PhaseIdealLoop25get_ctrl_no_update_helperEPK4Node.exit8.i.i.i.i

40:                                               ; preds = %.preheader.i.i.i.i
  %41 = zext i32 %38 to i64
  %42 = getelementptr inbounds ptr, ptr %26, i64 %41
  %43 = load ptr, ptr %42, align 8
  %44 = ptrtoint ptr %43 to i64
  %45 = and i64 %44, -2
  %46 = inttoptr i64 %45 to ptr
  br label %_ZNK14PhaseIdealLoop25get_ctrl_no_update_helperEPK4Node.exit8.i.i.i.i

_ZNK14PhaseIdealLoop25get_ctrl_no_update_helperEPK4Node.exit8.i.i.i.i: ; preds = %40, %.preheader.i.i.i.i
  %47 = phi ptr [ %46, %40 ], [ null, %.preheader.i.i.i.i ]
  %48 = getelementptr inbounds i8, ptr %47, i64 8
  %49 = load ptr, ptr %48, align 8
  %50 = load ptr, ptr %49, align 8
  %.not7.i.i.i.i = icmp eq ptr %50, null
  br i1 %.not7.i.i.i.i, label %.preheader.i.i.i.i, label %_ZNK14PhaseIdealLoop18get_ctrl_no_updateEPK4Node.exit.i.i.i, !llvm.loop !16

_ZNK14PhaseIdealLoop18get_ctrl_no_updateEPK4Node.exit.i.i.i: ; preds = %_ZNK14PhaseIdealLoop25get_ctrl_no_update_helperEPK4Node.exit8.i.i.i.i
  %51 = getelementptr inbounds i8, ptr %47, i64 44
  %52 = load i32, ptr %51, align 4
  %53 = and i32 %52, 7
  %54 = icmp eq i32 %53, 5
  %spec.select.i.i.i.i = select i1 %54, ptr %50, ptr %47
  %55 = ptrtoint ptr %spec.select.i.i.i.i to i64
  %56 = add nsw i64 %55, 1
  %57 = inttoptr i64 %56 to ptr
  store ptr %57, ptr %28, align 8
  br label %.thread.i.i

.thread.i.i:                                      ; preds = %_ZNK14PhaseIdealLoop18get_ctrl_no_updateEPK4Node.exit.i.i.i, %_ZNK14PhaseIdealLoop25get_ctrl_no_update_helperEPK4Node.exit.i.i.i.i, %_ZNK14PhaseIdealLoop8has_ctrlEPK4Node.exit.i.i, %17
  %58 = phi ptr [ %spec.select.i.i.i.i, %_ZNK14PhaseIdealLoop18get_ctrl_no_updateEPK4Node.exit.i.i.i ], [ %12, %_ZNK14PhaseIdealLoop8has_ctrlEPK4Node.exit.i.i ], [ %12, %17 ], [ %33, %_ZNK14PhaseIdealLoop25get_ctrl_no_update_helperEPK4Node.exit.i.i.i.i ]
  %59 = getelementptr inbounds i8, ptr %12, i64 32
  %60 = load i32, ptr %59, align 8
  %.not7.i.i = icmp eq i32 %60, 0
  br i1 %.not7.i.i, label %_ZNK5VLoop5in_bbEPK4Node.exit.thread.i, label %_ZNK5VLoop5in_bbEPK4Node.exit.i

_ZNK5VLoop5in_bbEPK4Node.exit.i:                  ; preds = %.thread.i.i
  %61 = getelementptr inbounds i8, ptr %18, i64 24
  %62 = load ptr, ptr %61, align 8
  %63 = icmp eq ptr %58, %62
  br i1 %63, label %64, label %_ZNK5VLoop5in_bbEPK4Node.exit.thread.i

64:                                               ; preds = %_ZNK5VLoop5in_bbEPK4Node.exit.i
  %65 = load i32, ptr %2, align 8
  %66 = add nsw i32 %65, 1
  store i32 %66, ptr %2, align 8
  br label %_ZNK5VLoop5in_bbEPK4Node.exit.thread.i

_ZNK5VLoop5in_bbEPK4Node.exit.thread.i:           ; preds = %64, %_ZNK5VLoop5in_bbEPK4Node.exit.i, %.thread.i.i, %9
  %indvars.iv.next.i = add nuw nsw i64 %indvars.iv.i, 1
  %67 = load i32, ptr %5, align 4
  %68 = sext i32 %67 to i64
  %69 = icmp slt i64 %indvars.iv.next.i, %68
  br i1 %69, label %9, label %"_ZNK9VLoopBody12for_each_memIZN14VLoopVPointers15count_vpointersEvE3$_0EEvT_.exit", !llvm.loop !17

"_ZNK9VLoopBody12for_each_memIZN14VLoopVPointers15count_vpointersEvE3$_0EEvT_.exit": ; preds = %_ZNK5VLoop5in_bbEPK4Node.exit.thread.i, %1
  ret void
}